target datalayout = "e-m:e-p270:32:32-p271:32:32-p272:64:64-i64:64-i128:128-f80:128-n8:16:32:64-S128"
target triple = "x86_64-pc-linux-gnu"

%struct.ident_t = type { i32, i32, i32, i32, ptr }
%"class.ncnn::Mat" = type { ptr, ptr, i64, i32, ptr, i32, i32, i32, i32, i32, i64 }

@1 = private unnamed_addr constant %struct.ident_t { i32 0, i32 514, i32 0, i32 22, ptr @0 }, align 8

; Function Attrs: noinline noreturn nounwind uwtable
define linkonce_odr hidden void @__clang_call_terminate(ptr noundef %0) #9 comdat {
  %2 = call ptr @__cxa_begin_catch(ptr %0) #7
  call void @_ZSt9terminatev() #13
  unreachable
}

; Function Attrs: alwaysinline mustprogress nounwind uwtable
define linkonce_odr hidden noundef ptr @_ZN4ncnn3Mat3rowEi(ptr noundef nonnull align 8 dereferenceable(72) %0, i32 noundef %1) #5 comdat align 2 {
  %3 = alloca ptr, align 8
  %4 = alloca i32, align 4
  store ptr %0, ptr %3, align 8, !tbaa !30
  store i32 %1, ptr %4, align 4, !tbaa !36
  %5 = load ptr, ptr %3, align 8
  %6 = getelementptr inbounds nuw %"class.ncnn::Mat", ptr %5, i32 0, i32 0
  %7 = load ptr, ptr %6, align 8, !tbaa !50
  %8 = getelementptr inbounds nuw %"class.ncnn::Mat", ptr %5, i32 0, i32 6
  %9 = load i32, ptr %8, align 4, !tbaa !37
  %10 = sext i32 %9 to i64
  %11 = load i32, ptr %4, align 4, !tbaa !36
  %12 = sext i32 %11 to i64
  %13 = mul i64 %10, %12
  %14 = getelementptr inbounds nuw %"class.ncnn::Mat", ptr %5, i32 0, i32 2
  %15 = load i64, ptr %14, align 8, !tbaa !61
  %16 = mul i64 %13, %15
  %17 = getelementptr inbounds nuw i8, ptr %7, i64 %16
  ret ptr %17
}

; Function Attrs: alwaysinline mustprogress nounwind uwtable
define linkonce_odr hidden noundef ptr @_ZNK4ncnn3Mat3rowEi(ptr noundef nonnull align 8 dereferenceable(72) %0, i32 noundef %1) #5 comdat align 2 {
  %3 = alloca ptr, align 8
  %4 = alloca i32, align 4
  store ptr %0, ptr %3, align 8, !tbaa !30
  store i32 %1, ptr %4, align 4, !tbaa !36
  %5 = load ptr, ptr %3, align 8
  %6 = getelementptr inbounds nuw %"class.ncnn::Mat", ptr %5, i32 0, i32 0
  %7 = load ptr, ptr %6, align 8, !tbaa !50
  %8 = getelementptr inbounds nuw %"class.ncnn::Mat", ptr %5, i32 0, i32 6
  %9 = load i32, ptr %8, align 4, !tbaa !37
  %10 = sext i32 %9 to i64
  %11 = load i32, ptr %4, align 4, !tbaa !36
  %12 = sext i32 %11 to i64
  %13 = mul i64 %10, %12
  %14 = getelementptr inbounds nuw %"class.ncnn::Mat", ptr %5, i32 0, i32 2
  %15 = load i64, ptr %14, align 8, !tbaa !61
  %16 = mul i64 %13, %15
  %17 = getelementptr inbounds nuw i8, ptr %7, i64 %16
  ret ptr %17
}

; Function Attrs: alwaysinline norecurse nounwind uwtable
define internal void @_ZNK4ncnn3GLU7forwardERKNS_3MatERS1_RKNS_6OptionE.omp_outlined.2(ptr noalias noundef %0, ptr noalias noundef %1, ptr noundef nonnull align 4 dereferenceable(4) %2, ptr noundef nonnull align 8 dereferenceable(72) %3, ptr noundef nonnull align 8 dereferenceable(72) %4, ptr noundef nonnull align 4 dereferenceable(4) %5) #6 personality ptr @__gxx_personality_v0 {
  %7 = alloca ptr, align 8
  %8 = alloca ptr, align 8
  %9 = alloca ptr, align 8
  %10 = alloca ptr, align 8
  %11 = alloca ptr, align 8
  %12 = alloca ptr, align 8
  %13 = alloca ptr, align 8
  %14 = alloca ptr, align 8
  %15 = alloca i32, align 4
  %16 = alloca i32, align 4
  %17 = alloca i32, align 4
  %18 = alloca i32, align 4
  %19 = alloca i32, align 4
  %20 = alloca i32, align 4
  %21 = alloca i32, align 4
  %22 = alloca i32, align 4
  %23 = alloca i32, align 4
  %24 = alloca ptr, align 8
  %25 = alloca ptr, align 8
  %26 = alloca i32, align 4
  %27 = alloca float, align 4
  store ptr %0, ptr %7, align 8, !tbaa !51
  store ptr %1, ptr %8, align 8, !tbaa !51
  store ptr %2, ptr %9, align 8, !tbaa !51
  store ptr %3, ptr %10, align 8, !tbaa !30
  store ptr %4, ptr %11, align 8, !tbaa !30
  store ptr %5, ptr %12, align 8, !tbaa !51
  %28 = load ptr, ptr %9, align 8, !tbaa !51
  %29 = load ptr, ptr %10, align 8, !tbaa !30
  %30 = load ptr, ptr %11, align 8, !tbaa !30
  %31 = load ptr, ptr %12, align 8, !tbaa !51
  store ptr %29, ptr %13, align 8
  store ptr %30, ptr %14, align 8
  call void @llvm.lifetime.start.p0(i64 4, ptr %15) #7
  call void @llvm.lifetime.start.p0(i64 4, ptr %16) #7
  %32 = load i32, ptr %28, align 4, !tbaa !36
  store i32 %32, ptr %16, align 4, !tbaa !36
  call void @llvm.lifetime.start.p0(i64 4, ptr %17) #7
  %33 = load i32, ptr %16, align 4, !tbaa !36
  %34 = sub nsw i32 %33, 0
  %35 = sdiv i32 %34, 1
  %36 = sub nsw i32 %35, 1
  store i32 %36, ptr %17, align 4, !tbaa !36
  call void @llvm.lifetime.start.p0(i64 4, ptr %18) #7
  store i32 0, ptr %18, align 4, !tbaa !36
  call void @llvm.lifetime.end.p0(i64 4, ptr %18) #7
  %37 = load i32, ptr %16, align 4, !tbaa !36
  %38 = icmp slt i32 0, %37
  br i1 %38, label %39, label %110

39:                                               ; preds = %6
  call void @llvm.lifetime.start.p0(i64 4, ptr %19) #7
  store i32 0, ptr %19, align 4, !tbaa !36
  call void @llvm.lifetime.start.p0(i64 4, ptr %20) #7
  %40 = load i32, ptr %17, align 4, !tbaa !36
  store i32 %40, ptr %20, align 4, !tbaa !36
  call void @llvm.lifetime.start.p0(i64 4, ptr %21) #7
  store i32 1, ptr %21, align 4, !tbaa !36
  call void @llvm.lifetime.start.p0(i64 4, ptr %22) #7
  store i32 0, ptr %22, align 4, !tbaa !36
  call void @llvm.lifetime.start.p0(i64 4, ptr %23) #7
  %41 = load ptr, ptr %7, align 8
  %42 = load i32, ptr %41, align 4, !tbaa !36
  call void @__kmpc_for_static_init_4(ptr @1, i32 %42, i32 34, ptr %22, ptr %19, ptr %20, ptr %21, i32 1, i32 1)
  %43 = load i32, ptr %20, align 4, !tbaa !36
  %44 = load i32, ptr %17, align 4, !tbaa !36
  %45 = icmp sgt i32 %43, %44
  br i1 %45, label %46, label %48

46:                                               ; preds = %39
  %47 = load i32, ptr %17, align 4, !tbaa !36
  br label %50

48:                                               ; preds = %39
  %49 = load i32, ptr %20, align 4, !tbaa !36
  br label %50

50:                                               ; preds = %48, %46
  %51 = phi i32 [ %47, %46 ], [ %49, %48 ]
  store i32 %51, ptr %20, align 4, !tbaa !36
  %52 = load i32, ptr %19, align 4, !tbaa !36
  store i32 %52, ptr %15, align 4, !tbaa !36
  br label %53

53:                                               ; preds = %103, %50
  %54 = load i32, ptr %15, align 4, !tbaa !36
  %55 = load i32, ptr %20, align 4, !tbaa !36
  %56 = icmp sle i32 %54, %55
  br i1 %56, label %58, label %57

57:                                               ; preds = %53
  br label %106

58:                                               ; preds = %53
  %59 = load i32, ptr %15, align 4, !tbaa !36
  %60 = mul nsw i32 %59, 1
  %61 = add nsw i32 0, %60
  store i32 %61, ptr %23, align 4, !tbaa !36
  call void @llvm.lifetime.start.p0(i64 8, ptr %24) #7
  %62 = load ptr, ptr %13, align 8, !tbaa !30
  %63 = load i32, ptr %23, align 4, !tbaa !36
  %64 = invoke noundef ptr @_ZNK4ncnn3Mat3rowEi(ptr noundef nonnull align 8 dereferenceable(72) %62, i32 noundef %63)
          to label %65 unwind label %111

65:                                               ; preds = %58
  store ptr %64, ptr %24, align 8, !tbaa !40
  call void @llvm.lifetime.start.p0(i64 8, ptr %25) #7
  %66 = load ptr, ptr %14, align 8, !tbaa !30
  %67 = load i32, ptr %23, align 4, !tbaa !36
  %68 = invoke noundef ptr @_ZN4ncnn3Mat3rowEi(ptr noundef nonnull align 8 dereferenceable(72) %66, i32 noundef %67)
          to label %69 unwind label %111

69:                                               ; preds = %65
  store ptr %68, ptr %25, align 8, !tbaa !40
  call void @llvm.lifetime.start.p0(i64 4, ptr %26) #7
  store i32 0, ptr %26, align 4, !tbaa !36
  br label %70

70:                                               ; preds = %98, %69
  %71 = load i32, ptr %26, align 4, !tbaa !36
  %72 = load i32, ptr %31, align 4, !tbaa !36
  %73 = icmp slt i32 %71, %72
  br i1 %73, label %75, label %74

74:                                               ; preds = %70
  call void @llvm.lifetime.end.p0(i64 4, ptr %26) #7
  br label %101

75:                                               ; preds = %70
  call void @llvm.lifetime.start.p0(i64 4, ptr %27) #7
  %76 = load ptr, ptr %24, align 8, !tbaa !40
  %77 = load i32, ptr %26, align 4, !tbaa !36
  %78 = load i32, ptr %31, align 4, !tbaa !36
  %79 = add nsw i32 %77, %78
  %80 = sext i32 %79 to i64
  %81 = getelementptr inbounds float, ptr %76, i64 %80
  %82 = load float, ptr %81, align 4, !tbaa !55
  %83 = fneg fast float %82
  %84 = call fast float @llvm.exp.f32(float %83)
  %85 = fadd fast float 1.000000e+00, %84
  %86 = fdiv fast float 1.000000e+00, %85
  store float %86, ptr %27, align 4, !tbaa !55
  %87 = load ptr, ptr %24, align 8, !tbaa !40
  %88 = load i32, ptr %26, align 4, !tbaa !36
  %89 = sext i32 %88 to i64
  %90 = getelementptr inbounds float, ptr %87, i64 %89
  %91 = load float, ptr %90, align 4, !tbaa !55
  %92 = load float, ptr %27, align 4, !tbaa !55
  %93 = fmul fast float %91, %92
  %94 = load ptr, ptr %25, align 8, !tbaa !40
  %95 = load i32, ptr %26, align 4, !tbaa !36
  %96 = sext i32 %95 to i64
  %97 = getelementptr inbounds float, ptr %94, i64 %96
  store float %93, ptr %97, align 4, !tbaa !55
  call void @llvm.lifetime.end.p0(i64 4, ptr %27) #7
  br label %98

98:                                               ; preds = %75
  %99 = load i32, ptr %26, align 4, !tbaa !36
  %100 = add nsw i32 %99, 1
  store i32 %100, ptr %26, align 4, !tbaa !36
  br label %70, !llvm.loop !59

101:                                              ; preds = %74
  call void @llvm.lifetime.end.p0(i64 8, ptr %25) #7
  call void @llvm.lifetime.end.p0(i64 8, ptr %24) #7
  br label %102

102:                                              ; preds = %101
  br label %103

103:                                              ; preds = %102
  %104 = load i32, ptr %15, align 4, !tbaa !36
  %105 = add nsw i32 %104, 1
  store i32 %105, ptr %15, align 4, !tbaa !36
  br label %53

106:                                              ; preds = %57
  br label %107

107:                                              ; preds = %106
  %108 = load ptr, ptr %7, align 8
  %109 = load i32, ptr %108, align 4, !tbaa !36
  call void @__kmpc_for_static_fini(ptr @1, i32 %109)
  call void @llvm.lifetime.end.p0(i64 4, ptr %23) #7
  call void @llvm.lifetime.end.p0(i64 4, ptr %22) #7
  call void @llvm.lifetime.end.p0(i64 4, ptr %21) #7
  call void @llvm.lifetime.end.p0(i64 4, ptr %20) #7
  call void @llvm.lifetime.end.p0(i64 4, ptr %19) #7
  br label %110

110:                                              ; preds = %107, %6
  call void @llvm.lifetime.end.p0(i64 4, ptr %17) #7
  call void @llvm.lifetime.end.p0(i64 4, ptr %16) #7
  call void @llvm.lifetime.end.p0(i64 4, ptr %15) #7
  ret void

111:                                              ; preds = %65, %58
  %112 = landingpad { ptr, i32 }
          catch ptr null
  %113 = extractvalue { ptr, i32 } %112, 0
  call void @__clang_call_terminate(ptr %113) #13
  unreachable
}