; Function Attrs: alwaysinline norecurse nounwind uwtable
define internal void @_ZNK4ncnn3GLU7forwardERKNS_3MatERS1_RKNS_6OptionE.omp_outlined.2(ptr noalias noundef readonly captures(none) %0, ptr noalias readnone captures(none) %1, ptr noundef nonnull readonly align 4 captures(none) dereferenceable(4) %2, ptr noundef nonnull readonly align 8 captures(none) dereferenceable(72) %3, ptr noundef nonnull readonly align 8 captures(none) dereferenceable(72) %4, ptr noundef nonnull readonly align 4 captures(none) dereferenceable(4) %5) #5 personality ptr @__gxx_personality_v0 {
  %7 = alloca i32, align 4
  %8 = alloca i32, align 4
  %9 = alloca i32, align 4
  %10 = alloca i32, align 4
  %11 = load i32, ptr %2, align 4, !tbaa !30
  %12 = icmp sgt i32 %11, 0
  br i1 %12, label %13, label %47

13:                                               ; preds = %6
  %14 = add nsw i32 %11, -1
  call void @llvm.lifetime.start.p0(i64 4, ptr nonnull %7) #6
  store i32 0, ptr %7, align 4, !tbaa !30
  call void @llvm.lifetime.start.p0(i64 4, ptr nonnull %8) #6
  store i32 %14, ptr %8, align 4, !tbaa !30
  call void @llvm.lifetime.start.p0(i64 4, ptr nonnull %9) #6
  store i32 1, ptr %9, align 4, !tbaa !30
  call void @llvm.lifetime.start.p0(i64 4, ptr nonnull %10) #6
  store i32 0, ptr %10, align 4, !tbaa !30
  %15 = load i32, ptr %0, align 4, !tbaa !30
  call void @__kmpc_for_static_init_4(ptr nonnull @1, i32 %15, i32 34, ptr nonnull %10, ptr nonnull %7, ptr nonnull %8, ptr nonnull %9, i32 1, i32 1)
  %16 = load i32, ptr %8, align 4, !tbaa !30
  %17 = call i32 @llvm.smin.i32(i32 %16, i32 %14)
  store i32 %17, ptr %8, align 4, !tbaa !30
  %18 = load i32, ptr %7, align 4, !tbaa !30
  %.not29 = icmp sgt i32 %18, %17
  br i1 %.not29, label %._crit_edge33, label %.lr.ph32

.lr.ph32:                                         ; preds = %13
  %19 = load ptr, ptr %3, align 8, !tbaa !33
  %20 = getelementptr inbounds nuw i8, ptr %3, i64 44
  %21 = load i32, ptr %20, align 4, !tbaa !29
  %22 = sext i32 %21 to i64
  %23 = getelementptr inbounds nuw i8, ptr %3, i64 16
  %24 = load i64, ptr %23, align 8, !tbaa !48
  %factor.op.mul = mul i64 %24, %22
  %25 = load ptr, ptr %4, align 8, !tbaa !33
  %26 = getelementptr inbounds nuw i8, ptr %4, i64 44
  %27 = load i32, ptr %26, align 4, !tbaa !29
  %28 = sext i32 %27 to i64
  %29 = getelementptr inbounds nuw i8, ptr %4, i64 16
  %30 = load i64, ptr %29, align 8, !tbaa !48
  %factor.op.mul34 = mul i64 %30, %28
  %31 = load i32, ptr %5, align 4, !tbaa !30
  %32 = icmp sgt i32 %31, 0
  br i1 %32, label %.lr.ph.us.preheader, label %._crit_edge33

.lr.ph.us.preheader:                              ; preds = %.lr.ph32
  %33 = zext nneg i32 %31 to i64
  %34 = sext i32 %18 to i64
  %35 = add nsw i32 %17, 1
  br label %.lr.ph.us

.lr.ph.us:                                        ; preds = %.lr.ph.us.preheader, %._crit_edge.us
  %indvars.iv38 = phi i64 [ %34, %.lr.ph.us.preheader ], [ %indvars.iv.next39, %._crit_edge.us ]
  %.reass.us = mul i64 %factor.op.mul, %indvars.iv38
  %36 = getelementptr inbounds nuw i8, ptr %19, i64 %.reass.us
  %.reass35.us = mul i64 %factor.op.mul34, %indvars.iv38
  %37 = getelementptr inbounds nuw i8, ptr %25, i64 %.reass35.us
  %invariant.gep = getelementptr inbounds nuw float, ptr %36, i64 %33
  br label %38

38:                                               ; preds = %.lr.ph.us, %38
  %indvars.iv = phi i64 [ 0, %.lr.ph.us ], [ %indvars.iv.next, %38 ]
  %gep = getelementptr inbounds nuw float, ptr %invariant.gep, i64 %indvars.iv
  %39 = load float, ptr %gep, align 4, !tbaa !44
  %40 = fneg fast float %39
  %41 = call fast float @llvm.exp.f32(float %40)
  %42 = fadd fast float %41, 1.000000e+00
  %43 = getelementptr inbounds nuw float, ptr %36, i64 %indvars.iv
  %44 = load float, ptr %43, align 4, !tbaa !44
  %45 = fdiv fast float %44, %42
  %46 = getelementptr inbounds nuw float, ptr %37, i64 %indvars.iv
  store float %45, ptr %46, align 4, !tbaa !44
  %indvars.iv.next = add nuw nsw i64 %indvars.iv, 1
  %exitcond.not = icmp eq i64 %indvars.iv.next, %33
  br i1 %exitcond.not, label %._crit_edge.us, label %38, !llvm.loop !49

._crit_edge.us:                                   ; preds = %38
  %indvars.iv.next39 = add nsw i64 %indvars.iv38, 1
  %lftr.wideiv = trunc i64 %indvars.iv.next39 to i32
  %exitcond41.not = icmp eq i32 %35, %lftr.wideiv
  br i1 %exitcond41.not, label %._crit_edge33, label %.lr.ph.us

._crit_edge33:                                    ; preds = %._crit_edge.us, %.lr.ph32, %13
  call void @__kmpc_for_static_fini(ptr nonnull @1, i32 %15)
  call void @llvm.lifetime.end.p0(i64 4, ptr nonnull %10) #6
  call void @llvm.lifetime.end.p0(i64 4, ptr nonnull %9) #6
  call void @llvm.lifetime.end.p0(i64 4, ptr nonnull %8) #6
  call void @llvm.lifetime.end.p0(i64 4, ptr nonnull %7) #6
  br label %47

47:                                               ; preds = %._crit_edge33, %6
  ret void
}